; Function Attrs: mustprogress nounwind uwtable
define hidden void @_ZN5JVMCI5eventEiPKcz(i32 noundef %0, ptr noundef %1, ...) local_unnamed_addr #0 align 2 {
  %3 = alloca [1 x %struct.__va_list_tag], align 16
  call void @llvm.va_start.p0(ptr nonnull %3)
  call void @_ZN5JVMCI4vlogEiPKcP13__va_list_tag(i32 noundef %0, ptr noundef %1, ptr noundef nonnull %3)
  call void @llvm.va_end.p0(ptr nonnull %3)
  call void @llvm.va_start.p0(ptr nonnull %3)
  call void @_ZN5JVMCI6vtraceEiPKcP13__va_list_tag(i32 noundef %0, ptr noundef %1, ptr noundef nonnull %3)
  call void @llvm.va_end.p0(ptr nonnull %3)
  ret void
}